target datalayout = "e-m:e-p270:32:32-p271:32:32-p272:64:64-i64:64-i128:128-f80:128-n8:16:32:64-S128"
target triple = "x86_64-unknown-linux-gnu"

%"class.grpc_core::TraceFlag" = type <{ ptr, ptr, %"struct.std::atomic", [7 x i8] }>
%"struct.std::atomic" = type { %"struct.std::__atomic_base" }
%"struct.std::__atomic_base" = type { i8 }
%struct.grpc_auth_property_iterator = type { ptr, i64, ptr }
%"class.grpc_core::RefCountedPtr.2" = type { ptr }
%"class.grpc_core::RefCounted.3" = type { %"class.grpc_core::RefCount" }
%"class.grpc_core::RefCount" = type { %"struct.std::atomic.0" }
%"struct.std::atomic.0" = type { %"struct.std::__atomic_base.1" }
%"struct.std::__atomic_base.1" = type { i64 }
%struct.grpc_auth_context = type { %"class.grpc_core::RefCounted.3", %"class.grpc_core::RefCountedPtr.2", %struct.grpc_auth_property_array, ptr, %"class.std::unique_ptr" }
%struct.grpc_auth_property_array = type { ptr, i64, i64 }
%"class.std::unique_ptr" = type { %"struct.std::__uniq_ptr_data" }
%"struct.std::__uniq_ptr_data" = type { %"class.std::__uniq_ptr_impl" }
%"class.std::__uniq_ptr_impl" = type { %"class.std::tuple" }
%"class.std::tuple" = type { %"struct.std::_Tuple_impl" }
%"struct.std::_Tuple_impl" = type { %"struct.std::_Head_base.5" }
%"struct.std::_Head_base.5" = type { ptr }
%struct.grpc_auth_property = type { ptr, ptr, i64 }

@grpc_api_trace = external global %"class.grpc_core::TraceFlag", align 8
@.str = private unnamed_addr constant [137 x i8] c"generated/home/dtcxzyw/WorkSpace/Projects/compilers/llvm-opt-benchmark/bench/grpc/grpc/src/core/lib/security/context/security_context.cc\00", align 1
@.str.11 = private unnamed_addr constant [67 x i8] c"grpc_auth_context_set_peer_identity_property_name(ctx=%p, name=%s)\00", align 1
@.str.12 = private unnamed_addr constant [44 x i8] c"Property name %s not found in auth context.\00", align 1
@.str.13 = private unnamed_addr constant [5 x i8] c"NULL\00", align 1
@_ZL14empty_iterator = internal global %struct.grpc_auth_property_iterator zeroinitializer, align 8
@.str.18 = private unnamed_addr constant [59 x i8] c"grpc_auth_context_find_properties_by_name(ctx=%p, name=%s)\00", align 1

; Function Attrs: noreturn nounwind uwtable
define linkonce_odr hidden void @__clang_call_terminate(ptr noundef %0) #6 comdat {
  %2 = call ptr @__cxa_begin_catch(ptr %0) #3
  call void @_ZSt9terminatev() #15
  unreachable
}

; Function Attrs: mustprogress nounwind uwtable
define linkonce_odr noundef i32 @_ZStanSt12memory_orderSt23__memory_order_modifier(i32 noundef %__m, i32 noundef %__mod) #5 comdat {
entry:
  %__m.addr = alloca i32, align 4
  %__mod.addr = alloca i32, align 4
  store i32 %__m, ptr %__m.addr, align 4
  store i32 %__mod, ptr %__mod.addr, align 4
  %0 = load i32, ptr %__m.addr, align 4
  %1 = load i32, ptr %__mod.addr, align 4
  %and = and i32 %0, %1
  ret i32 %and
}

; Function Attrs: mustprogress nounwind uwtable
define linkonce_odr noundef zeroext i1 @_ZNKSt6atomicIbE4loadESt12memory_order(ptr noundef nonnull align 1 dereferenceable(1) %this, i32 noundef %__m) #5 comdat align 2 personality ptr @__gxx_personality_v0 {
entry:
  %this.addr.i = alloca ptr, align 8
  %__m.addr.i = alloca i32, align 4
  %__b.i = alloca i32, align 4
  %atomic-temp.i = alloca i8, align 1
  %this.addr = alloca ptr, align 8
  %__m.addr = alloca i32, align 4
  store ptr %this, ptr %this.addr, align 8
  store i32 %__m, ptr %__m.addr, align 4
  %this1 = load ptr, ptr %this.addr, align 8
  %_M_base = getelementptr inbounds %"struct.std::atomic", ptr %this1, i32 0, i32 0
  %0 = load i32, ptr %__m.addr, align 4
  store ptr %_M_base, ptr %this.addr.i, align 8
  store i32 %0, ptr %__m.addr.i, align 4
  %this1.i = load ptr, ptr %this.addr.i, align 8
  %1 = load i32, ptr %__m.addr.i, align 4
  %call.i = invoke noundef i32 @_ZStanSt12memory_orderSt23__memory_order_modifier(i32 noundef %1, i32 noundef 65535)
          to label %invoke.cont.i unwind label %terminate.lpad.i

invoke.cont.i:                                    ; preds = %entry
  store i32 %call.i, ptr %__b.i, align 4
  %2 = load i32, ptr %__m.addr.i, align 4
  switch i32 %2, label %monotonic.i [
    i32 1, label %acquire.i
    i32 2, label %acquire.i
    i32 5, label %seqcst.i
  ]

monotonic.i:                                      ; preds = %invoke.cont.i
  %3 = load atomic i8, ptr %this1.i monotonic, align 1
  store i8 %3, ptr %atomic-temp.i, align 1
  br label %_ZNKSt13__atomic_baseIbE4loadESt12memory_order.exit

acquire.i:                                        ; preds = %invoke.cont.i, %invoke.cont.i
  %4 = load atomic i8, ptr %this1.i acquire, align 1
  store i8 %4, ptr %atomic-temp.i, align 1
  br label %_ZNKSt13__atomic_baseIbE4loadESt12memory_order.exit

seqcst.i:                                         ; preds = %invoke.cont.i
  %5 = load atomic i8, ptr %this1.i seq_cst, align 1
  store i8 %5, ptr %atomic-temp.i, align 1
  br label %_ZNKSt13__atomic_baseIbE4loadESt12memory_order.exit

terminate.lpad.i:                                 ; preds = %entry
  %6 = landingpad { ptr, i32 }
          catch ptr null
  %7 = extractvalue { ptr, i32 } %6, 0
  call void @__clang_call_terminate(ptr %7) #15
  unreachable

_ZNKSt13__atomic_baseIbE4loadESt12memory_order.exit: ; preds = %seqcst.i, %acquire.i, %monotonic.i
  %8 = load i8, ptr %atomic-temp.i, align 1
  %tobool.i = trunc i8 %8 to i1
  ret i1 %tobool.i
}

; Function Attrs: mustprogress nounwind uwtable
define linkonce_odr void @_ZN17grpc_auth_context31set_peer_identity_property_nameEPKc(ptr noundef nonnull align 8 dereferenceable(56) %this, ptr noundef %name) #5 comdat align 2 {
entry:
  %this.addr = alloca ptr, align 8
  %name.addr = alloca ptr, align 8
  store ptr %this, ptr %this.addr, align 8
  store ptr %name, ptr %name.addr, align 8
  %this1 = load ptr, ptr %this.addr, align 8
  %0 = load ptr, ptr %name.addr, align 8
  %peer_identity_property_name_ = getelementptr inbounds %struct.grpc_auth_context, ptr %this1, i32 0, i32 3
  store ptr %0, ptr %peer_identity_property_name_, align 8
  ret void
}

; Function Attrs: mustprogress nounwind uwtable
define linkonce_odr noundef zeroext i1 @_ZN9grpc_core9TraceFlag7enabledEv(ptr noundef nonnull align 8 dereferenceable(17) %this) #5 comdat align 2 {
entry:
  %this.addr = alloca ptr, align 8
  store ptr %this, ptr %this.addr, align 8
  %this1 = load ptr, ptr %this.addr, align 8
  %value_ = getelementptr inbounds %"class.grpc_core::TraceFlag", ptr %this1, i32 0, i32 2
  %call = call noundef zeroext i1 @_ZNKSt6atomicIbE4loadESt12memory_order(ptr noundef nonnull align 1 dereferenceable(1) %value_, i32 noundef 0) #3
  ret i1 %call
}

; Function Attrs: mustprogress uwtable
define void @grpc_auth_context_find_properties_by_name(ptr noalias sret(%struct.grpc_auth_property_iterator) align 8 %agg.result, ptr noundef %ctx, ptr noundef %name) #4 {
entry:
  %ctx.addr = alloca ptr, align 8
  %name.addr = alloca ptr, align 8
  %it = alloca %struct.grpc_auth_property_iterator, align 8
  store ptr %ctx, ptr %ctx.addr, align 8
  store ptr %name, ptr %name.addr, align 8
  call void @llvm.memcpy.p0.p0.i64(ptr align 8 %it, ptr align 8 @_ZL14empty_iterator, i64 24, i1 false)
  %call = call noundef zeroext i1 @_ZN9grpc_core9TraceFlag7enabledEv(ptr noundef nonnull align 8 dereferenceable(17) @grpc_api_trace)
  br i1 %call, label %if.then, label %if.end

if.then:                                          ; preds = %entry
  %0 = load ptr, ptr %ctx.addr, align 8
  %1 = load ptr, ptr %name.addr, align 8
  call void (ptr, i32, i32, ptr, ...) @gpr_log(ptr noundef @.str, i32 noundef 210, i32 noundef 1, ptr noundef @.str.18, ptr noundef %0, ptr noundef %1)
  br label %if.end

if.end:                                           ; preds = %if.then, %entry
  %2 = load ptr, ptr %ctx.addr, align 8
  %cmp = icmp eq ptr %2, null
  br i1 %cmp, label %if.then2, label %lor.lhs.false

lor.lhs.false:                                    ; preds = %if.end
  %3 = load ptr, ptr %name.addr, align 8
  %cmp1 = icmp eq ptr %3, null
  br i1 %cmp1, label %if.then2, label %if.end3

if.then2:                                         ; preds = %lor.lhs.false, %if.end
  call void @llvm.memcpy.p0.p0.i64(ptr align 8 %agg.result, ptr align 8 @_ZL14empty_iterator, i64 24, i1 false)
  br label %return

if.end3:                                          ; preds = %lor.lhs.false
  %4 = load ptr, ptr %ctx.addr, align 8
  %ctx4 = getelementptr inbounds %struct.grpc_auth_property_iterator, ptr %it, i32 0, i32 0
  store ptr %4, ptr %ctx4, align 8
  %5 = load ptr, ptr %name.addr, align 8
  %name5 = getelementptr inbounds %struct.grpc_auth_property_iterator, ptr %it, i32 0, i32 2
  store ptr %5, ptr %name5, align 8
  call void @llvm.memcpy.p0.p0.i64(ptr align 8 %agg.result, ptr align 8 %it, i64 24, i1 false)
  br label %return

return:                                           ; preds = %if.end3, %if.then2
  ret void
}

; Function Attrs: mustprogress uwtable
define i32 @grpc_auth_context_set_peer_identity_property_name(ptr noundef %ctx, ptr noundef %name) #4 {
entry:
  %retval = alloca i32, align 4
  %ctx.addr = alloca ptr, align 8
  %name.addr = alloca ptr, align 8
  %it = alloca %struct.grpc_auth_property_iterator, align 8
  %prop = alloca ptr, align 8
  store ptr %ctx, ptr %ctx.addr, align 8
  store ptr %name, ptr %name.addr, align 8
  %0 = load ptr, ptr %ctx.addr, align 8
  %1 = load ptr, ptr %name.addr, align 8
  call void @grpc_auth_context_find_properties_by_name(ptr sret(%struct.grpc_auth_property_iterator) align 8 %it, ptr noundef %0, ptr noundef %1)
  %call = call ptr @grpc_auth_property_iterator_next(ptr noundef %it)
  store ptr %call, ptr %prop, align 8
  %call1 = call noundef zeroext i1 @_ZN9grpc_core9TraceFlag7enabledEv(ptr noundef nonnull align 8 dereferenceable(17) @grpc_api_trace)
  br i1 %call1, label %if.then, label %if.end

if.then:                                          ; preds = %entry
  %2 = load ptr, ptr %ctx.addr, align 8
  %3 = load ptr, ptr %name.addr, align 8
  call void (ptr, i32, i32, ptr, ...) @gpr_log(ptr noundef @.str, i32 noundef 157, i32 noundef 1, ptr noundef @.str.11, ptr noundef %2, ptr noundef %3)
  br label %if.end

if.end:                                           ; preds = %if.then, %entry
  %4 = load ptr, ptr %prop, align 8
  %cmp = icmp eq ptr %4, null
  br i1 %cmp, label %if.then2, label %if.end4

if.then2:                                         ; preds = %if.end
  %5 = load ptr, ptr %name.addr, align 8
  %cmp3 = icmp ne ptr %5, null
  br i1 %cmp3, label %cond.true, label %cond.false

cond.true:                                        ; preds = %if.then2
  %6 = load ptr, ptr %name.addr, align 8
  br label %cond.end

cond.false:                                       ; preds = %if.then2
  br label %cond.end

cond.end:                                         ; preds = %cond.false, %cond.true
  %cond = phi ptr [ %6, %cond.true ], [ @.str.13, %cond.false ]
  call void (ptr, i32, i32, ptr, ...) @gpr_log(ptr noundef @.str, i32 noundef 159, i32 noundef 2, ptr noundef @.str.12, ptr noundef %cond)
  store i32 0, ptr %retval, align 4
  br label %return

if.end4:                                          ; preds = %if.end
  %7 = load ptr, ptr %ctx.addr, align 8
  %8 = load ptr, ptr %prop, align 8
  %name5 = getelementptr inbounds %struct.grpc_auth_property, ptr %8, i32 0, i32 0
  %9 = load ptr, ptr %name5, align 8
  call void @_ZN17grpc_auth_context31set_peer_identity_property_nameEPKc(ptr noundef nonnull align 8 dereferenceable(56) %7, ptr noundef %9)
  store i32 1, ptr %retval, align 4
  br label %return

return:                                           ; preds = %if.end4, %cond.end
  %10 = load i32, ptr %retval, align 4
  ret i32 %10
}