; Function Attrs: mustprogress uwtable
define noundef i32 @grpc_auth_context_set_peer_identity_property_name(ptr noundef %ctx, ptr noundef %name) local_unnamed_addr #4 personality ptr @__gxx_personality_v0 {
entry:
  %it = alloca %struct.grpc_auth_property_iterator, align 8
  tail call void @llvm.experimental.noalias.scope.decl(metadata !14)
  %0 = load atomic i8, ptr getelementptr inbounds (%"class.grpc_core::TraceFlag", ptr @grpc_api_trace, i64 0, i32 2, i32 0, i32 0) monotonic, align 8, !noalias !14
  %1 = and i8 %0, 1
  %tobool.i.i.i.not.i = icmp eq i8 %1, 0
  br i1 %tobool.i.i.i.not.i, label %if.end.i, label %if.then.i

if.then.i:                                        ; preds = %entry
  tail call void (ptr, i32, i32, ptr, ...) @gpr_log(ptr noundef nonnull @.str, i32 noundef 210, i32 noundef 1, ptr noundef nonnull @.str.18, ptr noundef %ctx, ptr noundef %name), !noalias !14
  br label %if.end.i

if.end.i:                                         ; preds = %if.then.i, %entry
  %cmp.i = icmp eq ptr %ctx, null
  %cmp1.i = icmp eq ptr %name, null
  %or.cond.i = or i1 %cmp.i, %cmp1.i
  br i1 %or.cond.i, label %if.then2.i, label %if.end3.i

if.then2.i:                                       ; preds = %if.end.i
  call void @llvm.memset.p0.i64(ptr noundef nonnull align 8 dereferenceable(24) %it, i8 0, i64 24, i1 false), !alias.scope !14
  br label %grpc_auth_context_find_properties_by_name.exit

if.end3.i:                                        ; preds = %if.end.i
  store ptr %ctx, ptr %it, align 8, !alias.scope !14
  %it.sroa.3.0.agg.result.sroa_idx.i = getelementptr inbounds i8, ptr %it, i64 8
  store i64 0, ptr %it.sroa.3.0.agg.result.sroa_idx.i, align 8, !alias.scope !14
  %it.sroa.33.0.agg.result.sroa_idx.i = getelementptr inbounds i8, ptr %it, i64 16
  store ptr %name, ptr %it.sroa.33.0.agg.result.sroa_idx.i, align 8, !alias.scope !14
  br label %grpc_auth_context_find_properties_by_name.exit

grpc_auth_context_find_properties_by_name.exit:   ; preds = %if.then2.i, %if.end3.i
  %call = call ptr @grpc_auth_property_iterator_next(ptr noundef nonnull %it)
  %2 = load atomic i8, ptr getelementptr inbounds (%"class.grpc_core::TraceFlag", ptr @grpc_api_trace, i64 0, i32 2, i32 0, i32 0) monotonic, align 8
  %3 = and i8 %2, 1
  %tobool.i.i.i.not = icmp eq i8 %3, 0
  br i1 %tobool.i.i.i.not, label %if.end, label %if.then

if.then:                                          ; preds = %grpc_auth_context_find_properties_by_name.exit
  call void (ptr, i32, i32, ptr, ...) @gpr_log(ptr noundef nonnull @.str, i32 noundef 157, i32 noundef 1, ptr noundef nonnull @.str.11, ptr noundef %ctx, ptr noundef %name)
  br label %if.end

if.end:                                           ; preds = %if.then, %grpc_auth_context_find_properties_by_name.exit
  %cmp = icmp eq ptr %call, null
  br i1 %cmp, label %if.then2, label %if.end4

if.then2:                                         ; preds = %if.end
  %cond = select i1 %cmp1.i, ptr @.str.13, ptr %name
  call void (ptr, i32, i32, ptr, ...) @gpr_log(ptr noundef nonnull @.str, i32 noundef 159, i32 noundef 2, ptr noundef nonnull @.str.12, ptr noundef nonnull %cond)
  br label %return

if.end4:                                          ; preds = %if.end
  %4 = load ptr, ptr %call, align 8
  %peer_identity_property_name_.i = getelementptr inbounds i8, ptr %ctx, i64 40
  store ptr %4, ptr %peer_identity_property_name_.i, align 8
  br label %return

return:                                           ; preds = %if.end4, %if.then2
  %retval.0 = phi i32 [ 0, %if.then2 ], [ 1, %if.end4 ]
  ret i32 %retval.0
}